; Function Attrs: mustprogress uwtable
define void @_ZN32pxrInternal_v0_24__pxrReserved__8SdfLayer8SetMutedEb(ptr noundef nonnull align 8 captures(none) dereferenceable(557) %0, i1 noundef zeroext %1) local_unnamed_addr #3 align 2 personality ptr @__gxx_personality_v0 {
  %3 = alloca %"class.std::__cxx11::basic_string", align 8
  %4 = alloca %"class.std::__cxx11::basic_string", align 8
  %5 = tail call noundef zeroext i1 @_ZNK32pxrInternal_v0_24__pxrReserved__8SdfLayer7IsMutedEv(ptr noundef nonnull align 8 dereferenceable(557) %0)
  %6 = xor i1 %1, %5
  br i1 %6, label %7, label %20

7:                                                ; preds = %2
  %8 = getelementptr inbounds nuw i8, ptr %0, i64 512
  %9 = load ptr, ptr %8, align 8, !noalias !338
  %10 = getelementptr inbounds nuw i8, ptr %9, i64 152
  %11 = tail call noundef zeroext i1 @_ZNKSt7__cxx1112basic_stringIcSt11char_traitsIcESaIcEE5emptyEv(ptr noundef nonnull align 8 dereferenceable(32) %10) #33, !noalias !338
  %12 = load ptr, ptr %8, align 8, !noalias !338
  %.idx.i = select i1 %11, i64 0, i64 152
  %13 = getelementptr inbounds nuw i8, ptr %12, i64 %.idx.i
  br i1 %1, label %14, label %17

14:                                               ; preds = %7
  call void @_ZNSt7__cxx1112basic_stringIcSt11char_traitsIcESaIcEEC1ERKS4_(ptr noundef nonnull align 8 dereferenceable(32) %3, ptr noundef nonnull align 8 dereferenceable(32) %13)
  invoke void @_ZN32pxrInternal_v0_24__pxrReserved__8SdfLayer16AddToMutedLayersERKNSt7__cxx1112basic_stringIcSt11char_traitsIcESaIcEEE(ptr noundef nonnull align 8 dereferenceable(32) %3)
          to label %.sink.split unwind label %15

15:                                               ; preds = %14
  %16 = landingpad { ptr, i32 }
          cleanup
  br label %21

17:                                               ; preds = %7
  call void @_ZNSt7__cxx1112basic_stringIcSt11char_traitsIcESaIcEEC1ERKS4_(ptr noundef nonnull align 8 dereferenceable(32) %4, ptr noundef nonnull align 8 dereferenceable(32) %13)
  invoke void @_ZN32pxrInternal_v0_24__pxrReserved__8SdfLayer21RemoveFromMutedLayersERKNSt7__cxx1112basic_stringIcSt11char_traitsIcESaIcEEE(ptr noundef nonnull align 8 dereferenceable(32) %4)
          to label %.sink.split unwind label %18

18:                                               ; preds = %17
  %19 = landingpad { ptr, i32 }
          cleanup
  br label %21

.sink.split:                                      ; preds = %17, %14
  %.sink = phi ptr [ %3, %14 ], [ %4, %17 ]
  call void @_ZNSt7__cxx1112basic_stringIcSt11char_traitsIcESaIcEED1Ev(ptr noundef nonnull align 8 dereferenceable(32) %.sink) #33
  br label %20

20:                                               ; preds = %.sink.split, %2
  ret void

21:                                               ; preds = %18, %15
  %.sink7 = phi ptr [ %4, %18 ], [ %3, %15 ]
  %.pn = phi { ptr, i32 } [ %19, %18 ], [ %16, %15 ]
  call void @_ZNSt7__cxx1112basic_stringIcSt11char_traitsIcESaIcEED1Ev(ptr noundef nonnull align 8 dereferenceable(32) %.sink7) #33
  resume { ptr, i32 } %.pn
}